; ModuleID = '53/746.c'
source_filename = "53/746.c"
target datalayout = "e-m:e-p270:32:32-p271:32:32-p272:64:64-i64:64-f80:128-n8:16:32:64-S128"
target triple = "x86_64-pc-linux-gnu"

@.str = private unnamed_addr constant [3 x i8] c"%d\00", align 1
@.str.1 = private unnamed_addr constant [4 x i8] c"%d,\00", align 1

; Function Attrs: noinline nounwind uwtable
define dso_local i32 @cross_out(i32* %0, i32 %1) #0 {
  %3 = alloca i32*, align 8
  %4 = alloca i32, align 4
  %5 = alloca i32, align 4
  %6 = alloca i32, align 4
  %7 = alloca i32, align 4
  %8 = alloca i32, align 4
  store i32* %0, i32** %3, align 8
  store i32 %1, i32* %4, align 4
  store i32 0, i32* %5, align 4
  store i32 0, i32* %6, align 4
  br label %9

9:                                                ; preds = %69, %2
  %10 = load i32, i32* %6, align 4
  %11 = load i32, i32* %4, align 4
  %12 = load i32, i32* %5, align 4
  %13 = sub nsw i32 %11, %12
  %14 = icmp slt i32 %10, %13
  br i1 %14, label %15, label %72

15:                                               ; preds = %9
  %16 = load i32, i32* %6, align 4
  %17 = add nsw i32 %16, 1
  store i32 %17, i32* %7, align 4
  br label %18

18:                                               ; preds = %65, %15
  %19 = load i32, i32* %7, align 4
  %20 = load i32, i32* %4, align 4
  %21 = load i32, i32* %5, align 4
  %22 = sub nsw i32 %20, %21
  %23 = icmp slt i32 %19, %22
  br i1 %23, label %24, label %68

24:                                               ; preds = %18
  %25 = load i32*, i32** %3, align 8
  %26 = load i32, i32* %6, align 4
  %27 = sext i32 %26 to i64
  %28 = getelementptr inbounds i32, i32* %25, i64 %27
  %29 = load i32, i32* %28, align 4
  %30 = load i32*, i32** %3, align 8
  %31 = load i32, i32* %7, align 4
  %32 = sext i32 %31 to i64
  %33 = getelementptr inbounds i32, i32* %30, i64 %32
  %34 = load i32, i32* %33, align 4
  %35 = icmp eq i32 %29, %34
  br i1 %35, label %36, label %64

36:                                               ; preds = %24
  %37 = load i32, i32* %7, align 4
  store i32 %37, i32* %8, align 4
  br label %38

38:                                               ; preds = %56, %36
  %39 = load i32, i32* %8, align 4
  %40 = load i32, i32* %4, align 4
  %41 = load i32, i32* %5, align 4
  %42 = sub nsw i32 %40, %41
  %43 = sub nsw i32 %42, 1
  %44 = icmp slt i32 %39, %43
  br i1 %44, label %45, label %59

45:                                               ; preds = %38
  %46 = load i32*, i32** %3, align 8
  %47 = load i32, i32* %8, align 4
  %48 = sext i32 %47 to i64
  %49 = getelementptr inbounds i32, i32* %46, i64 %48
  %50 = getelementptr inbounds i32, i32* %49, i64 1
  %51 = load i32, i32* %50, align 4
  %52 = load i32*, i32** %3, align 8
  %53 = load i32, i32* %8, align 4
  %54 = sext i32 %53 to i64
  %55 = getelementptr inbounds i32, i32* %52, i64 %54
  store i32 %51, i32* %55, align 4
  br label %56

56:                                               ; preds = %45
  %57 = load i32, i32* %8, align 4
  %58 = add nsw i32 %57, 1
  store i32 %58, i32* %8, align 4
  br label %38

59:                                               ; preds = %38
  %60 = load i32, i32* %7, align 4
  %61 = add nsw i32 %60, -1
  store i32 %61, i32* %7, align 4
  %62 = load i32, i32* %5, align 4
  %63 = add nsw i32 %62, 1
  store i32 %63, i32* %5, align 4
  br label %64

64:                                               ; preds = %59, %24
  br label %65

65:                                               ; preds = %64
  %66 = load i32, i32* %7, align 4
  %67 = add nsw i32 %66, 1
  store i32 %67, i32* %7, align 4
  br label %18

68:                                               ; preds = %18
  br label %69

69:                                               ; preds = %68
  %70 = load i32, i32* %6, align 4
  %71 = add nsw i32 %70, 1
  store i32 %71, i32* %6, align 4
  br label %9

72:                                               ; preds = %9
  %73 = load i32, i32* %5, align 4
  ret i32 %73
}

; Function Attrs: noinline nounwind uwtable
define dso_local void @main() #0 {
  %1 = alloca i32, align 4
  %2 = alloca i32, align 4
  %3 = alloca i32, align 4
  %4 = alloca [301 x i32], align 16
  %5 = alloca i32*, align 8
  %6 = getelementptr inbounds [301 x i32], [301 x i32]* %4, i64 0, i64 0
  store i32* %6, i32** %5, align 8
  %7 = call i32 (i8*, ...) @__isoc99_scanf(i8* getelementptr inbounds ([3 x i8], [3 x i8]* @.str, i64 0, i64 0), i32* %2)
  store i32 0, i32* %3, align 4
  br label %8

8:                                                ; preds = %18, %0
  %9 = load i32, i32* %3, align 4
  %10 = load i32, i32* %2, align 4
  %11 = icmp slt i32 %9, %10
  br i1 %11, label %12, label %21

12:                                               ; preds = %8
  %13 = load i32*, i32** %5, align 8
  %14 = load i32, i32* %3, align 4
  %15 = sext i32 %14 to i64
  %16 = getelementptr inbounds i32, i32* %13, i64 %15
  %17 = call i32 (i8*, ...) @__isoc99_scanf(i8* getelementptr inbounds ([3 x i8], [3 x i8]* @.str, i64 0, i64 0), i32* %16)
  br label %18

18:                                               ; preds = %12
  %19 = load i32, i32* %3, align 4
  %20 = add nsw i32 %19, 1
  store i32 %20, i32* %3, align 4
  br label %8

21:                                               ; preds = %8
  %22 = load i32*, i32** %5, align 8
  %23 = load i32, i32* %2, align 4
  %24 = call i32 @cross_out(i32* %22, i32 %23)
  store i32 %24, i32* %1, align 4
  store i32 0, i32* %3, align 4
  br label %25

25:                                               ; preds = %39, %21
  %26 = load i32, i32* %3, align 4
  %27 = load i32, i32* %2, align 4
  %28 = load i32, i32* %1, align 4
  %29 = sub nsw i32 %27, %28
  %30 = sub nsw i32 %29, 1
  %31 = icmp slt i32 %26, %30
  br i1 %31, label %32, label %42

32:                                               ; preds = %25
  %33 = load i32*, i32** %5, align 8
  %34 = load i32, i32* %3, align 4
  %35 = sext i32 %34 to i64
  %36 = getelementptr inbounds i32, i32* %33, i64 %35
  %37 = load i32, i32* %36, align 4
  %38 = call i32 (i8*, ...) @printf(i8* getelementptr inbounds ([4 x i8], [4 x i8]* @.str.1, i64 0, i64 0), i32 %37)
  br label %39

39:                                               ; preds = %32
  %40 = load i32, i32* %3, align 4
  %41 = add nsw i32 %40, 1
  store i32 %41, i32* %3, align 4
  br label %25

42:                                               ; preds = %25
  %43 = load i32*, i32** %5, align 8
  %44 = load i32, i32* %3, align 4
  %45 = sext i32 %44 to i64
  %46 = getelementptr inbounds i32, i32* %43, i64 %45
  %47 = load i32, i32* %46, align 4
  %48 = call i32 (i8*, ...) @printf(i8* getelementptr inbounds ([3 x i8], [3 x i8]* @.str, i64 0, i64 0), i32 %47)
  ret void
}

declare dso_local i32 @__isoc99_scanf(i8*, ...) #1

declare dso_local i32 @printf(i8*, ...) #1


!llvm.module.flags = !{!0}
!llvm.ident = !{!1}

!0 = !{i32 1, !"wchar_size", i32 4}
!1 = !{!"clang version 10.0.0-4ubuntu1 "}
